target datalayout = "e-m:e-p270:32:32-p271:32:32-p272:64:64-i64:64-i128:128-f80:128-n8:16:32:64-S128"
target triple = "x86_64-pc-linux-gnu"

%"class.cv::RotatedRect" = type { %"class.cv::Point_", %"class.cv::Size_", float }
%"class.cv::Point_" = type { float, float }
%"class.cv::Size_" = type { float, float }
%"class.cv::Mat" = type { i32, i32, i32, i32, ptr, ptr, ptr, ptr, ptr, ptr, %"struct.cv::MatSize", %"struct.cv::MatStep" }
%"struct.cv::MatSize" = type { ptr }
%"struct.cv::MatStep" = type { ptr, [2 x i64] }
%"class.cv::_InputArray" = type { i32, ptr, %"class.cv::Size_.0" }
%"class.cv::Size_.0" = type { i32, i32 }
%struct.CvBox2D = type { %struct.CvPoint2D32f, %struct.CvSize2D32f, float }
%struct.CvPoint2D32f = type { float, float }
%struct.CvSize2D32f = type { float, float }
%"class.cv::AutoBuffer" = type { ptr, i64, [136 x double] }

; Function Attrs: noinline noreturn nounwind uwtable
define linkonce_odr hidden void @__clang_call_terminate(ptr noundef %0) #15 comdat {
  %2 = call ptr @__cxa_begin_catch(ptr %0) #17
  call void @_ZSt9terminatev() #19
  unreachable
}

; Function Attrs: inlinehint mustprogress nounwind uwtable
define linkonce_odr hidden void @_ZN2cv10AutoBufferIdLm136EE10deallocateEv(ptr noundef nonnull align 8 dereferenceable(1104) %0) #4 comdat align 2 {
  %2 = alloca ptr, align 8
  store ptr %0, ptr %2, align 8, !tbaa !61
  %3 = load ptr, ptr %2, align 8
  %4 = getelementptr inbounds nuw %"class.cv::AutoBuffer", ptr %3, i32 0, i32 0
  %5 = load ptr, ptr %4, align 8, !tbaa !63
  %6 = getelementptr inbounds nuw %"class.cv::AutoBuffer", ptr %3, i32 0, i32 2
  %7 = getelementptr inbounds [136 x double], ptr %6, i64 0, i64 0
  %8 = icmp ne ptr %5, %7
  br i1 %8, label %9, label %19

9:                                                ; preds = %1
  %10 = getelementptr inbounds nuw %"class.cv::AutoBuffer", ptr %3, i32 0, i32 0
  %11 = load ptr, ptr %10, align 8, !tbaa !63
  %12 = icmp eq ptr %11, null
  br i1 %12, label %14, label %13

13:                                               ; preds = %9
  call void @_ZdaPv(ptr noundef %11) #21
  br label %14

14:                                               ; preds = %13, %9
  %15 = getelementptr inbounds nuw %"class.cv::AutoBuffer", ptr %3, i32 0, i32 2
  %16 = getelementptr inbounds [136 x double], ptr %15, i64 0, i64 0
  %17 = getelementptr inbounds nuw %"class.cv::AutoBuffer", ptr %3, i32 0, i32 0
  store ptr %16, ptr %17, align 8, !tbaa !63
  %18 = getelementptr inbounds nuw %"class.cv::AutoBuffer", ptr %3, i32 0, i32 1
  store i64 136, ptr %18, align 8, !tbaa !66
  br label %19

19:                                               ; preds = %14, %1
  ret void
}

; Function Attrs: mustprogress nounwind uwtable
define linkonce_odr hidden <2 x float> @_Z11cvSize2D32fIfE11CvSize2D32fRKN2cv5Size_IT_EE(ptr noundef nonnull align 4 dereferenceable(8) %0) #16 comdat {
  %2 = alloca %struct.CvSize2D32f, align 4
  %3 = alloca ptr, align 8
  store ptr %0, ptr %3, align 8, !tbaa !74
  %4 = getelementptr inbounds nuw %struct.CvSize2D32f, ptr %2, i32 0, i32 0
  %5 = load ptr, ptr %3, align 8, !tbaa !74
  %6 = getelementptr inbounds nuw %"class.cv::Size_", ptr %5, i32 0, i32 0
  %7 = load float, ptr %6, align 4, !tbaa !76
  store float %7, ptr %4, align 4, !tbaa !112
  %8 = getelementptr inbounds nuw %struct.CvSize2D32f, ptr %2, i32 0, i32 1
  %9 = load ptr, ptr %3, align 8, !tbaa !74
  %10 = getelementptr inbounds nuw %"class.cv::Size_", ptr %9, i32 0, i32 1
  %11 = load float, ptr %10, align 4, !tbaa !77
  store float %11, ptr %8, align 4, !tbaa !113
  %12 = load <2 x float>, ptr %2, align 4
  ret <2 x float> %12
}

; Function Attrs: mustprogress nounwind uwtable
define linkonce_odr hidden <2 x float> @_Z12cvPoint2D32fIfE12CvPoint2D32fRKN2cv6Point_IT_EE(ptr noundef nonnull align 4 dereferenceable(8) %0) #16 comdat {
  %2 = alloca %struct.CvPoint2D32f, align 4
  %3 = alloca ptr, align 8
  store ptr %0, ptr %3, align 8, !tbaa !10
  %4 = getelementptr inbounds nuw %struct.CvPoint2D32f, ptr %2, i32 0, i32 0
  %5 = load ptr, ptr %3, align 8, !tbaa !10
  %6 = getelementptr inbounds nuw %"class.cv::Point_", ptr %5, i32 0, i32 0
  %7 = load float, ptr %6, align 4, !tbaa !12
  store float %7, ptr %4, align 4, !tbaa !110
  %8 = getelementptr inbounds nuw %struct.CvPoint2D32f, ptr %2, i32 0, i32 1
  %9 = load ptr, ptr %3, align 8, !tbaa !10
  %10 = getelementptr inbounds nuw %"class.cv::Point_", ptr %9, i32 0, i32 1
  %11 = load float, ptr %10, align 4, !tbaa !18
  store float %11, ptr %8, align 4, !tbaa !111
  %12 = load <2 x float>, ptr %2, align 4
  ret <2 x float> %12
}

; Function Attrs: inlinehint mustprogress nounwind uwtable
define linkonce_odr hidden void @_ZN2cv11_InputArray4initEiPKv(ptr noundef nonnull align 8 dereferenceable(24) %0, i32 noundef %1, ptr noundef %2) #4 comdat align 2 {
  %4 = alloca ptr, align 8
  %5 = alloca i32, align 4
  %6 = alloca ptr, align 8
  store ptr %0, ptr %4, align 8, !tbaa !3
  store i32 %1, ptr %5, align 4, !tbaa !8
  store ptr %2, ptr %6, align 8, !tbaa !58
  %7 = load ptr, ptr %4, align 8
  %8 = load i32, ptr %5, align 4, !tbaa !8
  %9 = getelementptr inbounds nuw %"class.cv::_InputArray", ptr %7, i32 0, i32 0
  store i32 %8, ptr %9, align 8, !tbaa !78
  %10 = load ptr, ptr %6, align 8, !tbaa !58
  %11 = getelementptr inbounds nuw %"class.cv::_InputArray", ptr %7, i32 0, i32 1
  store ptr %10, ptr %11, align 8, !tbaa !71
  ret void
}

; Function Attrs: inlinehint mustprogress nounwind uwtable
define linkonce_odr hidden void @_ZN2cv5Size_IiEC2Ev(ptr noundef nonnull align 4 dereferenceable(8) %0) unnamed_addr #4 comdat align 2 {
  %2 = alloca ptr, align 8
  store ptr %0, ptr %2, align 8, !tbaa !79
  %3 = load ptr, ptr %2, align 8
  %4 = getelementptr inbounds nuw %"class.cv::Size_.0", ptr %3, i32 0, i32 0
  store i32 0, ptr %4, align 4, !tbaa !81
  %5 = getelementptr inbounds nuw %"class.cv::Size_.0", ptr %3, i32 0, i32 1
  store i32 0, ptr %5, align 4, !tbaa !82
  ret void
}

; Function Attrs: inlinehint mustprogress nounwind uwtable
define linkonce_odr hidden void @_ZN2cv10AutoBufferIdLm136EED2Ev(ptr noundef nonnull align 8 dereferenceable(1104) %0) unnamed_addr #4 comdat align 2 personality ptr @__gxx_personality_v0 {
  %2 = alloca ptr, align 8
  store ptr %0, ptr %2, align 8, !tbaa !61
  %3 = load ptr, ptr %2, align 8
  invoke void @_ZN2cv10AutoBufferIdLm136EE10deallocateEv(ptr noundef nonnull align 8 dereferenceable(1104) %3)
          to label %4 unwind label %5

4:                                                ; preds = %1
  ret void

5:                                                ; preds = %1
  %6 = landingpad { ptr, i32 }
          catch ptr null
  %7 = extractvalue { ptr, i32 } %6, 0
  call void @__clang_call_terminate(ptr %7) #19
  unreachable
}

; Function Attrs: inlinehint mustprogress uwtable
define internal void @_ZL7cvBox2DRKN2cv11RotatedRectE(ptr dead_on_unwind noalias writable sret(%struct.CvBox2D) align 4 %0, ptr noundef nonnull align 4 dereferenceable(20) %1) #8 {
  %3 = alloca ptr, align 8
  %4 = alloca %struct.CvPoint2D32f, align 4
  %5 = alloca %struct.CvSize2D32f, align 4
  store ptr %1, ptr %3, align 8, !tbaa !27
  call void @llvm.lifetime.start.p0(i64 8, ptr %4) #17
  %6 = load ptr, ptr %3, align 8, !tbaa !27
  %7 = getelementptr inbounds nuw %"class.cv::RotatedRect", ptr %6, i32 0, i32 0
  %8 = call <2 x float> @_Z12cvPoint2D32fIfE12CvPoint2D32fRKN2cv6Point_IT_EE(ptr noundef nonnull align 4 dereferenceable(8) %7)
  store <2 x float> %8, ptr %4, align 4
  %9 = getelementptr inbounds nuw %struct.CvBox2D, ptr %0, i32 0, i32 0
  call void @llvm.memcpy.p0.p0.i64(ptr align 4 %9, ptr align 4 %4, i64 8, i1 false), !tbaa.struct !25
  call void @llvm.lifetime.end.p0(i64 8, ptr %4) #17
  call void @llvm.lifetime.start.p0(i64 8, ptr %5) #17
  %10 = load ptr, ptr %3, align 8, !tbaa !27
  %11 = getelementptr inbounds nuw %"class.cv::RotatedRect", ptr %10, i32 0, i32 1
  %12 = call <2 x float> @_Z11cvSize2D32fIfE11CvSize2D32fRKN2cv5Size_IT_EE(ptr noundef nonnull align 4 dereferenceable(8) %11)
  store <2 x float> %12, ptr %5, align 4
  %13 = getelementptr inbounds nuw %struct.CvBox2D, ptr %0, i32 0, i32 1
  call void @llvm.memcpy.p0.p0.i64(ptr align 4 %13, ptr align 4 %5, i64 8, i1 false), !tbaa.struct !25
  call void @llvm.lifetime.end.p0(i64 8, ptr %5) #17
  %14 = load ptr, ptr %3, align 8, !tbaa !27
  %15 = getelementptr inbounds nuw %"class.cv::RotatedRect", ptr %14, i32 0, i32 2
  %16 = load float, ptr %15, align 4, !tbaa !22
  %17 = getelementptr inbounds nuw %struct.CvBox2D, ptr %0, i32 0, i32 2
  store float %16, ptr %17, align 4, !tbaa !67
  ret void
}

; Function Attrs: inlinehint mustprogress nounwind uwtable
define linkonce_odr hidden void @_ZN2cv11_InputArrayD2Ev(ptr noundef nonnull align 8 dereferenceable(24) %0) unnamed_addr #4 comdat align 2 {
  %2 = alloca ptr, align 8
  store ptr %0, ptr %2, align 8, !tbaa !3
  ret void
}

; Function Attrs: inlinehint mustprogress uwtable
define linkonce_odr hidden void @_ZN2cv11_InputArrayC2ERKNS_3MatE(ptr noundef nonnull align 8 dereferenceable(24) %0, ptr noundef nonnull align 8 dereferenceable(96) %1) unnamed_addr #5 comdat align 2 {
  %3 = alloca ptr, align 8
  %4 = alloca ptr, align 8
  store ptr %0, ptr %3, align 8, !tbaa !3
  store ptr %1, ptr %4, align 8, !tbaa !31
  %5 = load ptr, ptr %3, align 8
  %6 = getelementptr inbounds nuw %"class.cv::_InputArray", ptr %5, i32 0, i32 2
  call void @_ZN2cv5Size_IiEC2Ev(ptr noundef nonnull align 4 dereferenceable(8) %6)
  %7 = load ptr, ptr %4, align 8, !tbaa !31
  call void @_ZN2cv11_InputArray4initEiPKv(ptr noundef nonnull align 8 dereferenceable(24) %5, i32 noundef 16842752, ptr noundef %7)
  ret void
}

; Function Attrs: inlinehint mustprogress nounwind uwtable
define linkonce_odr hidden void @_ZN2cv10AutoBufferIdLm136EEC2Ev(ptr noundef nonnull align 8 dereferenceable(1104) %0) unnamed_addr #4 comdat align 2 {
  %2 = alloca ptr, align 8
  store ptr %0, ptr %2, align 8, !tbaa !61
  %3 = load ptr, ptr %2, align 8
  %4 = getelementptr inbounds nuw %"class.cv::AutoBuffer", ptr %3, i32 0, i32 2
  %5 = getelementptr inbounds [136 x double], ptr %4, i64 0, i64 0
  %6 = getelementptr inbounds nuw %"class.cv::AutoBuffer", ptr %3, i32 0, i32 0
  store ptr %5, ptr %6, align 8, !tbaa !63
  %7 = getelementptr inbounds nuw %"class.cv::AutoBuffer", ptr %3, i32 0, i32 1
  store i64 136, ptr %7, align 8, !tbaa !66
  ret void
}

; Function Attrs: mustprogress uwtable
define void @cvMinAreaRect2(ptr dead_on_unwind noalias writable sret(%struct.CvBox2D) align 4 %0, ptr noundef %1, ptr noundef %2) #0 personality ptr @__gxx_personality_v0 {
  %4 = alloca ptr, align 8
  %5 = alloca ptr, align 8
  %6 = alloca %"class.cv::AutoBuffer", align 8
  %7 = alloca %"class.cv::Mat", align 8
  %8 = alloca ptr, align 8
  %9 = alloca i32, align 4
  %10 = alloca %"class.cv::RotatedRect", align 4
  %11 = alloca %"class.cv::_InputArray", align 8
  store ptr %1, ptr %4, align 8, !tbaa !58
  store ptr %2, ptr %5, align 8, !tbaa !59
  call void @llvm.lifetime.start.p0(i64 1104, ptr %6) #17
  call void @_ZN2cv10AutoBufferIdLm136EEC2Ev(ptr noundef nonnull align 8 dereferenceable(1104) %6)
  call void @llvm.lifetime.start.p0(i64 96, ptr %7) #17
  %12 = load ptr, ptr %4, align 8, !tbaa !58
  invoke void @_ZN2cv10cvarrToMatEPKvbbiPNS_10AutoBufferIdLm136EEE(ptr dead_on_unwind writable sret(%"class.cv::Mat") align 8 %7, ptr noundef %12, i1 noundef zeroext false, i1 noundef zeroext false, i32 noundef 0, ptr noundef %6)
          to label %13 unwind label %17

13:                                               ; preds = %3
  call void @llvm.lifetime.start.p0(i64 20, ptr %10) #17
  call void @llvm.lifetime.start.p0(i64 24, ptr %11) #17
  invoke void @_ZN2cv11_InputArrayC2ERKNS_3MatE(ptr noundef nonnull align 8 dereferenceable(24) %11, ptr noundef nonnull align 8 dereferenceable(96) %7)
          to label %14 unwind label %21

14:                                               ; preds = %13
  invoke void @_ZN2cv11minAreaRectERKNS_11_InputArrayE(ptr dead_on_unwind writable sret(%"class.cv::RotatedRect") align 4 %10, ptr noundef nonnull align 8 dereferenceable(24) %11)
          to label %15 unwind label %25

15:                                               ; preds = %14
  call void @_ZN2cv11_InputArrayD2Ev(ptr noundef nonnull align 8 dereferenceable(24) %11) #17
  call void @llvm.lifetime.end.p0(i64 24, ptr %11) #17
  invoke void @_ZL7cvBox2DRKN2cv11RotatedRectE(ptr dead_on_unwind writable sret(%struct.CvBox2D) align 4 %0, ptr noundef nonnull align 4 dereferenceable(20) %10)
          to label %16 unwind label %30

16:                                               ; preds = %15
  call void @llvm.lifetime.end.p0(i64 20, ptr %10) #17
  call void @_ZN2cv3MatD1Ev(ptr noundef nonnull align 8 dereferenceable(96) %7) #17
  call void @llvm.lifetime.end.p0(i64 96, ptr %7) #17
  call void @_ZN2cv10AutoBufferIdLm136EED2Ev(ptr noundef nonnull align 8 dereferenceable(1104) %6) #17
  call void @llvm.lifetime.end.p0(i64 1104, ptr %6) #17
  ret void

17:                                               ; preds = %3
  %18 = landingpad { ptr, i32 }
          cleanup
  %19 = extractvalue { ptr, i32 } %18, 0
  store ptr %19, ptr %8, align 8
  %20 = extractvalue { ptr, i32 } %18, 1
  store i32 %20, ptr %9, align 4
  br label %35

21:                                               ; preds = %13
  %22 = landingpad { ptr, i32 }
          cleanup
  %23 = extractvalue { ptr, i32 } %22, 0
  store ptr %23, ptr %8, align 8
  %24 = extractvalue { ptr, i32 } %22, 1
  store i32 %24, ptr %9, align 4
  br label %29

25:                                               ; preds = %14
  %26 = landingpad { ptr, i32 }
          cleanup
  %27 = extractvalue { ptr, i32 } %26, 0
  store ptr %27, ptr %8, align 8
  %28 = extractvalue { ptr, i32 } %26, 1
  store i32 %28, ptr %9, align 4
  call void @_ZN2cv11_InputArrayD2Ev(ptr noundef nonnull align 8 dereferenceable(24) %11) #17
  br label %29

29:                                               ; preds = %25, %21
  call void @llvm.lifetime.end.p0(i64 24, ptr %11) #17
  br label %34

30:                                               ; preds = %15
  %31 = landingpad { ptr, i32 }
          cleanup
  %32 = extractvalue { ptr, i32 } %31, 0
  store ptr %32, ptr %8, align 8
  %33 = extractvalue { ptr, i32 } %31, 1
  store i32 %33, ptr %9, align 4
  br label %34

34:                                               ; preds = %30, %29
  call void @llvm.lifetime.end.p0(i64 20, ptr %10) #17
  call void @_ZN2cv3MatD1Ev(ptr noundef nonnull align 8 dereferenceable(96) %7) #17
  br label %35

35:                                               ; preds = %34, %17
  call void @llvm.lifetime.end.p0(i64 96, ptr %7) #17
  call void @_ZN2cv10AutoBufferIdLm136EED2Ev(ptr noundef nonnull align 8 dereferenceable(1104) %6) #17
  call void @llvm.lifetime.end.p0(i64 1104, ptr %6) #17
  br label %36

36:                                               ; preds = %35
  %37 = load ptr, ptr %8, align 8
  %38 = load i32, ptr %9, align 4
  %39 = insertvalue { ptr, i32 } poison, ptr %37, 0
  %40 = insertvalue { ptr, i32 } %39, i32 %38, 1
  resume { ptr, i32 } %40
}