; Function Attrs: mustprogress uwtable
define void @cvMinAreaRect2(ptr dead_on_unwind noalias writable writeonly sret(%struct.CvBox2D) align 4 captures(none) %0, ptr noundef %1, ptr noundef readnone captures(none) %2) local_unnamed_addr #7 personality ptr @__gxx_personality_v0 {
  %4 = alloca %"class.cv::AutoBuffer", align 8
  %5 = alloca %"class.cv::Mat", align 8
  %6 = alloca %"class.cv::RotatedRect", align 16
  %7 = alloca %"class.cv::_InputArray", align 8
  call void @llvm.lifetime.start.p0(i64 1104, ptr nonnull %4) #17
  %8 = getelementptr inbounds nuw i8, ptr %4, i64 16
  store ptr %8, ptr %4, align 8, !tbaa !51
  %9 = getelementptr inbounds nuw i8, ptr %4, i64 8
  store i64 136, ptr %9, align 8, !tbaa !54
  call void @llvm.lifetime.start.p0(i64 96, ptr nonnull %5) #17
  invoke void @_ZN2cv10cvarrToMatEPKvbbiPNS_10AutoBufferIdLm136EEE(ptr dead_on_unwind nonnull writable sret(%"class.cv::Mat") align 8 %5, ptr noundef %1, i1 noundef zeroext false, i1 noundef zeroext false, i32 noundef 0, ptr noundef nonnull %4)
          to label %10 unwind label %23

10:                                               ; preds = %3
  call void @llvm.lifetime.start.p0(i64 20, ptr nonnull %6) #17
  call void @llvm.lifetime.start.p0(i64 24, ptr nonnull %7) #17
  %11 = getelementptr inbounds nuw i8, ptr %7, i64 16
  store i32 0, ptr %11, align 8, !tbaa !55
  %12 = getelementptr inbounds nuw i8, ptr %7, i64 20
  store i32 0, ptr %12, align 4, !tbaa !56
  store i32 16842752, ptr %7, align 8, !tbaa !3
  %13 = getelementptr inbounds nuw i8, ptr %7, i64 8
  store ptr %5, ptr %13, align 8, !tbaa !10
  invoke void @_ZN2cv11minAreaRectERKNS_11_InputArrayE(ptr dead_on_unwind nonnull writable sret(%"class.cv::RotatedRect") align 4 %6, ptr noundef nonnull align 8 dereferenceable(24) %7)
          to label %14 unwind label %25

14:                                               ; preds = %10
  call void @llvm.lifetime.end.p0(i64 24, ptr nonnull %7) #17
  call void @llvm.experimental.noalias.scope.decl(metadata !57)
  %15 = load <4 x float>, ptr %6, align 16, !noalias !57
  %.sroa.0.4.vec.insert.i.i = shufflevector <4 x float> %15, <4 x float> poison, <2 x i32> <i32 0, i32 1>
  store <2 x float> %.sroa.0.4.vec.insert.i.i, ptr %0, align 4, !alias.scope !57
  %.sroa.0.4.vec.insert.i5.i = shufflevector <4 x float> %15, <4 x float> poison, <2 x i32> <i32 2, i32 3>
  %16 = getelementptr inbounds nuw i8, ptr %0, i64 8
  store <2 x float> %.sroa.0.4.vec.insert.i5.i, ptr %16, align 4, !alias.scope !57
  %17 = getelementptr inbounds nuw i8, ptr %6, i64 16
  %18 = load float, ptr %17, align 16, !tbaa !47, !noalias !57
  %19 = getelementptr inbounds nuw i8, ptr %0, i64 16
  store float %18, ptr %19, align 4, !tbaa !60, !alias.scope !57
  call void @llvm.lifetime.end.p0(i64 20, ptr nonnull %6) #17
  call void @_ZN2cv3MatD1Ev(ptr noundef nonnull align 8 dereferenceable(96) %5) #17
  call void @llvm.lifetime.end.p0(i64 96, ptr nonnull %5) #17
  %20 = load ptr, ptr %4, align 8, !tbaa !51
  %.not.i.i = icmp eq ptr %20, %8
  %21 = icmp eq ptr %20, null
  %or.cond = or i1 %.not.i.i, %21
  br i1 %or.cond, label %_ZN2cv10AutoBufferIdLm136EED2Ev.exit, label %22

22:                                               ; preds = %14
  call void @_ZdaPv(ptr noundef nonnull %20) #20
  br label %_ZN2cv10AutoBufferIdLm136EED2Ev.exit

_ZN2cv10AutoBufferIdLm136EED2Ev.exit:             ; preds = %22, %14
  call void @llvm.lifetime.end.p0(i64 1104, ptr nonnull %4) #17
  ret void

23:                                               ; preds = %3
  %24 = landingpad { ptr, i32 }
          cleanup
  br label %27

25:                                               ; preds = %10
  %26 = landingpad { ptr, i32 }
          cleanup
  call void @llvm.lifetime.end.p0(i64 24, ptr nonnull %7) #17
  call void @llvm.lifetime.end.p0(i64 20, ptr nonnull %6) #17
  call void @_ZN2cv3MatD1Ev(ptr noundef nonnull align 8 dereferenceable(96) %5) #17
  br label %27

27:                                               ; preds = %25, %23
  %.pn6.pn = phi { ptr, i32 } [ %26, %25 ], [ %24, %23 ]
  call void @llvm.lifetime.end.p0(i64 96, ptr nonnull %5) #17
  %28 = load ptr, ptr %4, align 8, !tbaa !51
  %.not.i.i9 = icmp eq ptr %28, %8
  %29 = icmp eq ptr %28, null
  %or.cond11 = or i1 %.not.i.i9, %29
  br i1 %or.cond11, label %_ZN2cv10AutoBufferIdLm136EED2Ev.exit10, label %30

30:                                               ; preds = %27
  call void @_ZdaPv(ptr noundef nonnull %28) #20
  br label %_ZN2cv10AutoBufferIdLm136EED2Ev.exit10

_ZN2cv10AutoBufferIdLm136EED2Ev.exit10:           ; preds = %30, %27
  call void @llvm.lifetime.end.p0(i64 1104, ptr nonnull %4) #17
  resume { ptr, i32 } %.pn6.pn
}